target datalayout = "e-m:e-p270:32:32-p271:32:32-p272:64:64-i64:64-i128:128-f80:128-n8:16:32:64-S128"
target triple = "x86_64-pc-linux-gnu"

%"class.llvm::StringRef" = type { ptr, i64 }
%"union.std::_Optional_payload_base<llvm::StringRef>::_Storage" = type { %"class.llvm::StringRef" }
%"struct.llvm::AArch64::ExtensionInfo" = type { %"class.llvm::StringRef", %"class.std::optional.17", i32, %"class.llvm::StringRef", %"class.llvm::StringRef", %"class.llvm::StringRef", %"class.llvm::StringRef" }
%"class.std::optional.17" = type { %"struct.std::_Optional_base.18" }
%"struct.std::_Optional_base.18" = type { %"struct.std::_Optional_payload.20" }
%"struct.std::_Optional_payload.20" = type { %"struct.std::_Optional_payload_base.base.22", [7 x i8] }
%"struct.std::_Optional_payload_base.base.22" = type <{ %"union.std::_Optional_payload_base<llvm::StringRef>::_Storage", i8 }>

; Function Attrs: mustprogress nounwind uwtable
define dso_local noundef nonnull align 8 dereferenceable(112) ptr @_Z19lookupExtensionByIDN4llvm7AArch6411ArchExtKindE(i32 noundef %0) #0 {
  %2 = alloca i32, align 4
  %3 = alloca ptr, align 8
  %4 = alloca ptr, align 8
  %5 = alloca ptr, align 8
  %6 = alloca ptr, align 8
  store i32 %0, ptr %2, align 4
  store ptr @_ZN4llvm7AArch6410ExtensionsE, ptr %3, align 8
  store ptr @_ZN4llvm7AArch6410ExtensionsE, ptr %4, align 8
  store ptr getelementptr inbounds (%"struct.llvm::AArch64::ExtensionInfo", ptr @_ZN4llvm7AArch6410ExtensionsE, i64 112), ptr %5, align 8
  br label %7

7:                                                ; preds = %21, %1
  %8 = load ptr, ptr %4, align 8
  %9 = load ptr, ptr %5, align 8
  %10 = icmp ne ptr %8, %9
  br i1 %10, label %11, label %24

11:                                               ; preds = %7
  %12 = load ptr, ptr %4, align 8
  store ptr %12, ptr %6, align 8
  %13 = load ptr, ptr %6, align 8
  %14 = getelementptr inbounds nuw %"struct.llvm::AArch64::ExtensionInfo", ptr %13, i32 0, i32 2
  %15 = load i32, ptr %14, align 8
  %16 = load i32, ptr %2, align 4
  %17 = icmp eq i32 %15, %16
  br i1 %17, label %18, label %20

18:                                               ; preds = %11
  %19 = load ptr, ptr %6, align 8
  ret ptr %19

20:                                               ; preds = %11
  br label %21

21:                                               ; preds = %20
  %22 = load ptr, ptr %4, align 8
  %23 = getelementptr inbounds %"struct.llvm::AArch64::ExtensionInfo", ptr %22, i32 1
  store ptr %23, ptr %4, align 8
  br label %7

24:                                               ; preds = %7
  unreachable
}