; Function Attrs: mustprogress nofree norecurse nosync nounwind memory(inaccessiblemem: write) uwtable
define dso_local noundef nonnull align 8 dereferenceable(112) ptr @_Z19lookupExtensionByIDN4llvm7AArch6411ArchExtKindE(i32 noundef %0) local_unnamed_addr #11 {
  br label %2

2:                                                ; preds = %2, %1
  %.0.idx = phi i64 [ 0, %1 ], [ %.0.add, %2 ]
  %.0.ptr = getelementptr inbounds nuw i8, ptr @_ZN4llvm7AArch6410ExtensionsE, i64 %.0.idx
  %3 = icmp ne i64 %.0.idx, 12544
  tail call void @llvm.assume(i1 %3)
  %4 = getelementptr inbounds nuw i8, ptr %.0.ptr, i64 40
  %5 = load i32, ptr %4, align 8
  %6 = icmp eq i32 %5, %0
  %.0.add = add nuw nsw i64 %.0.idx, 112
  br i1 %6, label %7, label %2

7:                                                ; preds = %2
  ret ptr %.0.ptr
}